target datalayout = "e-m:e-p270:32:32-p271:32:32-p272:64:64-i64:64-i128:128-f80:128-n8:16:32:64-S128"
target triple = "x86_64-pc-linux-gnu"

%struct.PJconsts = type { ptr, ptr, ptr, ptr, ptr, ptr, ptr, ptr, ptr, ptr, ptr, ptr, i32, ptr, ptr, ptr, ptr, ptr, ptr, ptr, ptr, double, double, double, double, double, double, double, double, double, double, double, double, double, double, double, double, double, double, double, double, double, double, i32, i32, i32, i32, i32, i32, i32, i32, i32, i32, i32, ptr, ptr, ptr, ptr, ptr, ptr, double, double, double, double, double, double, double, double, double, double, double, i32, [7 x double], i32, ptr, ptr, double, double, i32, [4 x i8], %"class.std::shared_ptr", i8, double, i8, %"class.std::__cxx11::basic_string", %"class.std::__cxx11::basic_string", %"class.std::__cxx11::basic_string", i8, %"class.std::vector", i32, %"class.std::vector.3", i32, i8, i8, i8, ptr }
%"class.std::shared_ptr" = type { %"class.std::__shared_ptr" }
%"class.std::__shared_ptr" = type { ptr, %"class.std::__shared_count" }
%"class.std::__shared_count" = type { ptr }
%"class.std::__cxx11::basic_string" = type { %"struct.std::__cxx11::basic_string<char>::_Alloc_hider", i64, %union.anon }
%"struct.std::__cxx11::basic_string<char>::_Alloc_hider" = type { ptr }
%union.anon = type { i64, [8 x i8] }
%"class.std::vector" = type { %"struct.std::_Vector_base" }
%"struct.std::_Vector_base" = type { %"struct.std::_Vector_base<osgeo::proj::operation::GridDescription, std::allocator<osgeo::proj::operation::GridDescription>>::_Vector_impl" }
%"struct.std::_Vector_base<osgeo::proj::operation::GridDescription, std::allocator<osgeo::proj::operation::GridDescription>>::_Vector_impl" = type { %"struct.std::_Vector_base<osgeo::proj::operation::GridDescription, std::allocator<osgeo::proj::operation::GridDescription>>::_Vector_impl_data" }
%"struct.std::_Vector_base<osgeo::proj::operation::GridDescription, std::allocator<osgeo::proj::operation::GridDescription>>::_Vector_impl_data" = type { ptr, ptr, ptr }
%"class.std::vector.3" = type { %"struct.std::_Vector_base.4" }
%"struct.std::_Vector_base.4" = type { %"struct.std::_Vector_base<PJCoordOperation, std::allocator<PJCoordOperation>>::_Vector_impl" }
%"struct.std::_Vector_base<PJCoordOperation, std::allocator<PJCoordOperation>>::_Vector_impl" = type { %"struct.std::_Vector_base<PJCoordOperation, std::allocator<PJCoordOperation>>::_Vector_impl_data" }
%"struct.std::_Vector_base<PJCoordOperation, std::allocator<PJCoordOperation>>::_Vector_impl_data" = type { ptr, ptr, ptr }
%"struct.(anonymous namespace)::pj_stere" = type { double, double, double, double, i32 }
%struct.PJ_LP = type { double, double }
%struct.PJ_XY = type { double, double }
%union.PJ_COORD = type { [4 x double] }

; Function Attrs: mustprogress nounwind uwtable
define internal noundef double @_ZL5ssfn_ddd(double noundef %0, double noundef %1, double noundef %2) #6 {
  %4 = alloca double, align 8
  %5 = alloca double, align 8
  %6 = alloca double, align 8
  store double %0, ptr %4, align 8, !tbaa !50
  store double %1, ptr %5, align 8, !tbaa !50
  store double %2, ptr %6, align 8, !tbaa !50
  %7 = load double, ptr %6, align 8, !tbaa !50
  %8 = load double, ptr %5, align 8, !tbaa !50
  %9 = fmul double %8, %7
  store double %9, ptr %5, align 8, !tbaa !50
  %10 = load double, ptr %4, align 8, !tbaa !50
  %11 = fadd double 0x3FF921FB54442D18, %10
  %12 = fmul double 5.000000e-01, %11
  %13 = call double @tan(double noundef %12) #9, !tbaa !55
  %14 = load double, ptr %5, align 8, !tbaa !50
  %15 = fsub double 1.000000e+00, %14
  %16 = load double, ptr %5, align 8, !tbaa !50
  %17 = fadd double 1.000000e+00, %16
  %18 = fdiv double %15, %17
  %19 = load double, ptr %6, align 8, !tbaa !50
  %20 = fmul double 5.000000e-01, %19
  %21 = call double @pow(double noundef %18, double noundef %20) #9, !tbaa !55
  %22 = fmul double %13, %21
  ret double %22
}

; Function Attrs: mustprogress uwtable
define internal { double, double } @_ZL15stere_e_forward5PJ_LPP8PJconsts(double %0, double %1, ptr noundef %2) #0 {
  %4 = alloca %struct.PJ_XY, align 8
  %5 = alloca %struct.PJ_LP, align 8
  %6 = alloca ptr, align 8
  %7 = alloca %struct.PJ_XY, align 8
  %8 = alloca ptr, align 8
  %9 = alloca double, align 8
  %10 = alloca double, align 8
  %11 = alloca double, align 8
  %12 = alloca double, align 8
  %13 = alloca double, align 8
  %14 = alloca double, align 8
  %15 = alloca double, align 8
  %16 = alloca double, align 8
  %17 = alloca %union.PJ_COORD, align 8
  %18 = alloca i32, align 4
  %19 = getelementptr inbounds nuw { double, double }, ptr %5, i32 0, i32 0
  store double %0, ptr %19, align 8
  %20 = getelementptr inbounds nuw { double, double }, ptr %5, i32 0, i32 1
  store double %1, ptr %20, align 8
  store ptr %2, ptr %6, align 8, !tbaa !3
  call void @llvm.lifetime.start.p0(i64 16, ptr %7) #9
  call void @llvm.memset.p0.i64(ptr align 8 %7, i8 0, i64 16, i1 false)
  call void @llvm.lifetime.start.p0(i64 8, ptr %8) #9
  %21 = load ptr, ptr %6, align 8, !tbaa !3
  %22 = getelementptr inbounds nuw %struct.PJconsts, ptr %21, i32 0, i32 11
  %23 = load ptr, ptr %22, align 8, !tbaa !43
  store ptr %23, ptr %8, align 8, !tbaa !41
  call void @llvm.lifetime.start.p0(i64 8, ptr %9) #9
  call void @llvm.lifetime.start.p0(i64 8, ptr %10) #9
  call void @llvm.lifetime.start.p0(i64 8, ptr %11) #9
  store double 0.000000e+00, ptr %11, align 8, !tbaa !50
  call void @llvm.lifetime.start.p0(i64 8, ptr %12) #9
  store double 0.000000e+00, ptr %12, align 8, !tbaa !50
  call void @llvm.lifetime.start.p0(i64 8, ptr %13) #9
  store double 0.000000e+00, ptr %13, align 8, !tbaa !50
  call void @llvm.lifetime.start.p0(i64 8, ptr %14) #9
  %24 = getelementptr inbounds nuw %struct.PJ_LP, ptr %5, i32 0, i32 0
  %25 = load double, ptr %24, align 8, !tbaa !69
  %26 = call double @cos(double noundef %25) #9, !tbaa !55
  store double %26, ptr %9, align 8, !tbaa !50
  %27 = getelementptr inbounds nuw %struct.PJ_LP, ptr %5, i32 0, i32 0
  %28 = load double, ptr %27, align 8, !tbaa !69
  %29 = call double @sin(double noundef %28) #9, !tbaa !55
  store double %29, ptr %10, align 8, !tbaa !50
  %30 = getelementptr inbounds nuw %struct.PJ_LP, ptr %5, i32 0, i32 1
  %31 = load double, ptr %30, align 8, !tbaa !67
  %32 = call double @sin(double noundef %31) #9, !tbaa !55
  store double %32, ptr %14, align 8, !tbaa !50
  %33 = load ptr, ptr %8, align 8, !tbaa !41
  %34 = getelementptr inbounds nuw %"struct.(anonymous namespace)::pj_stere", ptr %33, i32 0, i32 4
  %35 = load i32, ptr %34, align 8, !tbaa !51
  %36 = icmp eq i32 %35, 2
  br i1 %36, label %42, label %37

37:                                               ; preds = %3
  %38 = load ptr, ptr %8, align 8, !tbaa !41
  %39 = getelementptr inbounds nuw %"struct.(anonymous namespace)::pj_stere", ptr %38, i32 0, i32 4
  %40 = load i32, ptr %39, align 8, !tbaa !51
  %41 = icmp eq i32 %40, 3
  br i1 %41, label %42, label %56

42:                                               ; preds = %37, %3
  call void @llvm.lifetime.start.p0(i64 8, ptr %15) #9
  %43 = getelementptr inbounds nuw %struct.PJ_LP, ptr %5, i32 0, i32 1
  %44 = load double, ptr %43, align 8, !tbaa !67
  %45 = load double, ptr %14, align 8, !tbaa !50
  %46 = load ptr, ptr %6, align 8, !tbaa !3
  %47 = getelementptr inbounds nuw %struct.PJconsts, ptr %46, i32 0, i32 26
  %48 = load double, ptr %47, align 8, !tbaa !54
  %49 = call noundef double @_ZL5ssfn_ddd(double noundef %44, double noundef %45, double noundef %48)
  %50 = call double @atan(double noundef %49) #9, !tbaa !55
  %51 = call double @llvm.fmuladd.f64(double 2.000000e+00, double %50, double 0xBFF921FB54442D18)
  store double %51, ptr %15, align 8, !tbaa !50
  %52 = load double, ptr %15, align 8, !tbaa !50
  %53 = call double @sin(double noundef %52) #9, !tbaa !55
  store double %53, ptr %11, align 8, !tbaa !50
  %54 = load double, ptr %15, align 8, !tbaa !50
  %55 = call double @cos(double noundef %54) #9, !tbaa !55
  store double %55, ptr %12, align 8, !tbaa !50
  call void @llvm.lifetime.end.p0(i64 8, ptr %15) #9
  br label %56

56:                                               ; preds = %42, %37
  %57 = load ptr, ptr %8, align 8, !tbaa !41
  %58 = getelementptr inbounds nuw %"struct.(anonymous namespace)::pj_stere", ptr %57, i32 0, i32 4
  %59 = load i32, ptr %58, align 8, !tbaa !51
  switch i32 %59, label %171 [
    i32 2, label %60
    i32 3, label %110
    i32 0, label %134
    i32 1, label %143
  ]

60:                                               ; preds = %56
  call void @llvm.lifetime.start.p0(i64 8, ptr %16) #9
  %61 = load ptr, ptr %8, align 8, !tbaa !41
  %62 = getelementptr inbounds nuw %"struct.(anonymous namespace)::pj_stere", ptr %61, i32 0, i32 2
  %63 = load double, ptr %62, align 8, !tbaa !58
  %64 = load ptr, ptr %8, align 8, !tbaa !41
  %65 = getelementptr inbounds nuw %"struct.(anonymous namespace)::pj_stere", ptr %64, i32 0, i32 1
  %66 = load double, ptr %65, align 8, !tbaa !57
  %67 = load double, ptr %11, align 8, !tbaa !50
  %68 = call double @llvm.fmuladd.f64(double %66, double %67, double 1.000000e+00)
  %69 = load ptr, ptr %8, align 8, !tbaa !41
  %70 = getelementptr inbounds nuw %"struct.(anonymous namespace)::pj_stere", ptr %69, i32 0, i32 2
  %71 = load double, ptr %70, align 8, !tbaa !58
  %72 = load double, ptr %12, align 8, !tbaa !50
  %73 = fmul double %71, %72
  %74 = load double, ptr %9, align 8, !tbaa !50
  %75 = call double @llvm.fmuladd.f64(double %73, double %74, double %68)
  %76 = fmul double %63, %75
  store double %76, ptr %16, align 8, !tbaa !50
  %77 = load double, ptr %16, align 8, !tbaa !50
  %78 = fcmp oeq double %77, 0.000000e+00
  br i1 %78, label %79, label %82

79:                                               ; preds = %60
  %80 = load ptr, ptr %6, align 8, !tbaa !3
  %81 = call i32 @proj_errno_set(ptr noundef %80, i32 noundef 2050)
  call void @llvm.lifetime.start.p0(i64 32, ptr %17) #9
  call void @_Z16proj_coord_errorv(ptr dead_on_unwind writable sret(%union.PJ_COORD) align 8 %17)
  call void @llvm.memcpy.p0.p0.i64(ptr align 8 %4, ptr align 8 %17, i64 16, i1 false), !tbaa.struct !72
  call void @llvm.lifetime.end.p0(i64 32, ptr %17) #9
  store i32 1, ptr %18, align 4
  br label %108

82:                                               ; preds = %60
  %83 = load ptr, ptr %8, align 8, !tbaa !41
  %84 = getelementptr inbounds nuw %"struct.(anonymous namespace)::pj_stere", ptr %83, i32 0, i32 3
  %85 = load double, ptr %84, align 8, !tbaa !56
  %86 = load double, ptr %16, align 8, !tbaa !50
  %87 = fdiv double %85, %86
  store double %87, ptr %13, align 8, !tbaa !50
  %88 = load double, ptr %13, align 8, !tbaa !50
  %89 = load ptr, ptr %8, align 8, !tbaa !41
  %90 = getelementptr inbounds nuw %"struct.(anonymous namespace)::pj_stere", ptr %89, i32 0, i32 2
  %91 = load double, ptr %90, align 8, !tbaa !58
  %92 = load double, ptr %11, align 8, !tbaa !50
  %93 = load ptr, ptr %8, align 8, !tbaa !41
  %94 = getelementptr inbounds nuw %"struct.(anonymous namespace)::pj_stere", ptr %93, i32 0, i32 1
  %95 = load double, ptr %94, align 8, !tbaa !57
  %96 = load double, ptr %12, align 8, !tbaa !50
  %97 = fmul double %95, %96
  %98 = load double, ptr %9, align 8, !tbaa !50
  %99 = fmul double %97, %98
  %100 = fneg double %99
  %101 = call double @llvm.fmuladd.f64(double %91, double %92, double %100)
  %102 = fmul double %88, %101
  %103 = getelementptr inbounds nuw %struct.PJ_XY, ptr %7, i32 0, i32 1
  store double %102, ptr %103, align 8, !tbaa !66
  %104 = load double, ptr %13, align 8, !tbaa !50
  %105 = load double, ptr %12, align 8, !tbaa !50
  %106 = fmul double %104, %105
  %107 = getelementptr inbounds nuw %struct.PJ_XY, ptr %7, i32 0, i32 0
  store double %106, ptr %107, align 8, !tbaa !64
  store i32 2, ptr %18, align 4
  br label %108

108:                                              ; preds = %82, %79
  call void @llvm.lifetime.end.p0(i64 8, ptr %16) #9
  %109 = load i32, ptr %18, align 4
  switch i32 %109, label %177 [
    i32 2, label %171
  ]

110:                                              ; preds = %56
  %111 = load double, ptr %12, align 8, !tbaa !50
  %112 = load double, ptr %9, align 8, !tbaa !50
  %113 = call double @llvm.fmuladd.f64(double %111, double %112, double 1.000000e+00)
  %114 = fcmp oeq double %113, 0.000000e+00
  br i1 %114, label %115, label %117

115:                                              ; preds = %110
  %116 = getelementptr inbounds nuw %struct.PJ_XY, ptr %7, i32 0, i32 1
  store double 0x7FF0000000000000, ptr %116, align 8, !tbaa !66
  br label %129

117:                                              ; preds = %110
  %118 = load ptr, ptr %8, align 8, !tbaa !41
  %119 = getelementptr inbounds nuw %"struct.(anonymous namespace)::pj_stere", ptr %118, i32 0, i32 3
  %120 = load double, ptr %119, align 8, !tbaa !56
  %121 = load double, ptr %12, align 8, !tbaa !50
  %122 = load double, ptr %9, align 8, !tbaa !50
  %123 = call double @llvm.fmuladd.f64(double %121, double %122, double 1.000000e+00)
  %124 = fdiv double %120, %123
  store double %124, ptr %13, align 8, !tbaa !50
  %125 = load double, ptr %13, align 8, !tbaa !50
  %126 = load double, ptr %11, align 8, !tbaa !50
  %127 = fmul double %125, %126
  %128 = getelementptr inbounds nuw %struct.PJ_XY, ptr %7, i32 0, i32 1
  store double %127, ptr %128, align 8, !tbaa !66
  br label %129

129:                                              ; preds = %117, %115
  %130 = load double, ptr %13, align 8, !tbaa !50
  %131 = load double, ptr %12, align 8, !tbaa !50
  %132 = fmul double %130, %131
  %133 = getelementptr inbounds nuw %struct.PJ_XY, ptr %7, i32 0, i32 0
  store double %132, ptr %133, align 8, !tbaa !64
  br label %171

134:                                              ; preds = %56
  %135 = getelementptr inbounds nuw %struct.PJ_LP, ptr %5, i32 0, i32 1
  %136 = load double, ptr %135, align 8, !tbaa !67
  %137 = fneg double %136
  %138 = getelementptr inbounds nuw %struct.PJ_LP, ptr %5, i32 0, i32 1
  store double %137, ptr %138, align 8, !tbaa !67
  %139 = load double, ptr %9, align 8, !tbaa !50
  %140 = fneg double %139
  store double %140, ptr %9, align 8, !tbaa !50
  %141 = load double, ptr %14, align 8, !tbaa !50
  %142 = fneg double %141
  store double %142, ptr %14, align 8, !tbaa !50
  br label %143

143:                                              ; preds = %56, %134
  %144 = getelementptr inbounds nuw %struct.PJ_LP, ptr %5, i32 0, i32 1
  %145 = load double, ptr %144, align 8, !tbaa !67
  %146 = fsub double %145, 0x3FF921FB54442D18
  %147 = call double @llvm.fabs.f64(double %146)
  %148 = fcmp olt double %147, 1.000000e-15
  br i1 %148, label %149, label %151

149:                                              ; preds = %143
  %150 = getelementptr inbounds nuw %struct.PJ_XY, ptr %7, i32 0, i32 0
  store double 0.000000e+00, ptr %150, align 8, !tbaa !64
  br label %164

151:                                              ; preds = %143
  %152 = load ptr, ptr %8, align 8, !tbaa !41
  %153 = getelementptr inbounds nuw %"struct.(anonymous namespace)::pj_stere", ptr %152, i32 0, i32 3
  %154 = load double, ptr %153, align 8, !tbaa !56
  %155 = getelementptr inbounds nuw %struct.PJ_LP, ptr %5, i32 0, i32 1
  %156 = load double, ptr %155, align 8, !tbaa !67
  %157 = load double, ptr %14, align 8, !tbaa !50
  %158 = load ptr, ptr %6, align 8, !tbaa !3
  %159 = getelementptr inbounds nuw %struct.PJconsts, ptr %158, i32 0, i32 26
  %160 = load double, ptr %159, align 8, !tbaa !54
  %161 = call noundef double @_Z7pj_tsfnddd(double noundef %156, double noundef %157, double noundef %160)
  %162 = fmul double %154, %161
  %163 = getelementptr inbounds nuw %struct.PJ_XY, ptr %7, i32 0, i32 0
  store double %162, ptr %163, align 8, !tbaa !64
  br label %164

164:                                              ; preds = %151, %149
  %165 = getelementptr inbounds nuw %struct.PJ_XY, ptr %7, i32 0, i32 0
  %166 = load double, ptr %165, align 8, !tbaa !64
  %167 = fneg double %166
  %168 = load double, ptr %9, align 8, !tbaa !50
  %169 = fmul double %167, %168
  %170 = getelementptr inbounds nuw %struct.PJ_XY, ptr %7, i32 0, i32 1
  store double %169, ptr %170, align 8, !tbaa !66
  br label %171

171:                                              ; preds = %56, %164, %129, %108
  %172 = getelementptr inbounds nuw %struct.PJ_XY, ptr %7, i32 0, i32 0
  %173 = load double, ptr %172, align 8, !tbaa !64
  %174 = load double, ptr %10, align 8, !tbaa !50
  %175 = fmul double %173, %174
  %176 = getelementptr inbounds nuw %struct.PJ_XY, ptr %7, i32 0, i32 0
  store double %175, ptr %176, align 8, !tbaa !64
  call void @llvm.memcpy.p0.p0.i64(ptr align 8 %4, ptr align 8 %7, i64 16, i1 false), !tbaa.struct !72
  store i32 1, ptr %18, align 4
  br label %177

177:                                              ; preds = %171, %108
  call void @llvm.lifetime.end.p0(i64 8, ptr %14) #9
  call void @llvm.lifetime.end.p0(i64 8, ptr %13) #9
  call void @llvm.lifetime.end.p0(i64 8, ptr %12) #9
  call void @llvm.lifetime.end.p0(i64 8, ptr %11) #9
  call void @llvm.lifetime.end.p0(i64 8, ptr %10) #9
  call void @llvm.lifetime.end.p0(i64 8, ptr %9) #9
  call void @llvm.lifetime.end.p0(i64 8, ptr %8) #9
  call void @llvm.lifetime.end.p0(i64 16, ptr %7) #9
  %178 = load { double, double }, ptr %4, align 8
  ret { double, double } %178
}