; Function Attrs: mustprogress uwtable
define internal { double, double } @_ZL15stere_e_forward5PJ_LPP8PJconsts(double %0, double %1, ptr noundef %2) #0 {
  %4 = alloca %union.PJ_COORD, align 8
  %5 = getelementptr inbounds nuw i8, ptr %2, i64 88
  %6 = load ptr, ptr %5, align 8, !tbaa !3
  %7 = tail call double @cos(double noundef %0) #8, !tbaa !50
  %8 = tail call double @sin(double noundef %0) #8, !tbaa !50
  %9 = tail call double @sin(double noundef %1) #8, !tbaa !50
  %10 = getelementptr inbounds nuw i8, ptr %6, i64 32
  %11 = load i32, ptr %10, align 8, !tbaa !46
  %12 = and i32 %11, -2
  %switch = icmp eq i32 %12, 2
  br i1 %switch, label %13, label %30

13:                                               ; preds = %3
  %14 = getelementptr inbounds nuw i8, ptr %2, i64 208
  %15 = load double, ptr %14, align 8, !tbaa !49
  %16 = fmul double %9, %15
  %17 = fadd double %1, 0x3FF921FB54442D18
  %18 = fmul double %17, 5.000000e-01
  %19 = tail call double @tan(double noundef %18) #8, !tbaa !50
  %20 = fsub double 1.000000e+00, %16
  %21 = fadd double %16, 1.000000e+00
  %22 = fdiv double %20, %21
  %23 = fmul double %15, 5.000000e-01
  %24 = tail call double @pow(double noundef %22, double noundef %23) #8, !tbaa !50
  %25 = fmul double %19, %24
  %26 = tail call double @atan(double noundef %25) #8, !tbaa !50
  %27 = tail call double @llvm.fmuladd.f64(double %26, double 2.000000e+00, double 0xBFF921FB54442D18)
  %28 = tail call double @sin(double noundef %27) #8, !tbaa !50
  %29 = tail call double @cos(double noundef %27) #8, !tbaa !50
  br label %30

30:                                               ; preds = %3, %13
  %.054 = phi double [ %28, %13 ], [ 0.000000e+00, %3 ]
  %.053 = phi double [ %29, %13 ], [ 0.000000e+00, %3 ]
  switch i32 %11, label %80 [
    i32 2, label %31
    i32 3, label %52
    i32 0, label %62
    i32 1, label %66
  ]

31:                                               ; preds = %30
  %32 = getelementptr inbounds nuw i8, ptr %6, i64 16
  %33 = load double, ptr %32, align 8, !tbaa !53
  %34 = getelementptr inbounds nuw i8, ptr %6, i64 8
  %35 = load double, ptr %34, align 8, !tbaa !52
  %36 = tail call double @llvm.fmuladd.f64(double %35, double %.054, double 1.000000e+00)
  %37 = fmul double %.053, %33
  %38 = tail call double @llvm.fmuladd.f64(double %37, double %7, double %36)
  %39 = fmul double %33, %38
  %40 = fcmp une double %39, 0.000000e+00
  br i1 %40, label %.thread, label %50

.thread:                                          ; preds = %31
  %41 = getelementptr inbounds nuw i8, ptr %6, i64 24
  %42 = load double, ptr %41, align 8, !tbaa !51
  %43 = fdiv double %42, %39
  %44 = fmul double %.053, %35
  %45 = fneg double %7
  %46 = fmul double %44, %45
  %47 = tail call double @llvm.fmuladd.f64(double %33, double %.054, double %46)
  %48 = fmul double %47, %43
  %49 = fmul double %.053, %43
  br label %80

50:                                               ; preds = %31
  %51 = tail call i32 @proj_errno_set(ptr noundef nonnull %2, i32 noundef 2050)
  call void @llvm.lifetime.start.p0(i64 32, ptr nonnull %4) #8
  call void @_Z16proj_coord_errorv(ptr dead_on_unwind nonnull writable sret(%union.PJ_COORD) align 8 %4)
  %.sroa.049.0.copyload = load double, ptr %4, align 8, !tbaa !61
  %.sroa.350.0..sroa_idx = getelementptr inbounds nuw i8, ptr %4, i64 8
  %.sroa.350.0.copyload = load double, ptr %.sroa.350.0..sroa_idx, align 8, !tbaa !61
  call void @llvm.lifetime.end.p0(i64 32, ptr nonnull %4) #8
  br label %82

52:                                               ; preds = %30
  %53 = tail call double @llvm.fmuladd.f64(double %.053, double %7, double 1.000000e+00)
  %54 = fcmp oeq double %53, 0.000000e+00
  br i1 %54, label %60, label %55

55:                                               ; preds = %52
  %56 = getelementptr inbounds nuw i8, ptr %6, i64 24
  %57 = load double, ptr %56, align 8, !tbaa !51
  %58 = fdiv double %57, %53
  %59 = fmul double %.054, %58
  br label %60

60:                                               ; preds = %52, %55
  %.sroa.11.2 = phi double [ %59, %55 ], [ 0x7FF0000000000000, %52 ]
  %.052 = phi double [ %58, %55 ], [ 0.000000e+00, %52 ]
  %61 = fmul double %.053, %.052
  br label %80

62:                                               ; preds = %30
  %63 = fneg double %1
  %64 = fneg double %7
  %65 = fneg double %9
  br label %66

66:                                               ; preds = %62, %30
  %.055 = phi double [ %7, %30 ], [ %64, %62 ]
  %.sroa.3.0 = phi double [ %1, %30 ], [ %63, %62 ]
  %.051 = phi double [ %9, %30 ], [ %65, %62 ]
  %67 = fadd double %.sroa.3.0, 0xBFF921FB54442D18
  %68 = tail call double @llvm.fabs.f64(double %67)
  %69 = fcmp olt double %68, 1.000000e-15
  br i1 %69, label %77, label %70

70:                                               ; preds = %66
  %71 = getelementptr inbounds nuw i8, ptr %6, i64 24
  %72 = load double, ptr %71, align 8, !tbaa !51
  %73 = getelementptr inbounds nuw i8, ptr %2, i64 208
  %74 = load double, ptr %73, align 8, !tbaa !49
  %75 = tail call noundef double @_Z7pj_tsfnddd(double noundef %.sroa.3.0, double noundef %.051, double noundef %74)
  %76 = fmul double %72, %75
  br label %77

77:                                               ; preds = %66, %70
  %.sroa.0.2 = phi double [ %76, %70 ], [ 0.000000e+00, %66 ]
  %78 = fneg double %.sroa.0.2
  %79 = fmul double %.055, %78
  br label %80

80:                                               ; preds = %.thread, %77, %60, %30
  %.sroa.11.0 = phi double [ 0.000000e+00, %30 ], [ %79, %77 ], [ %.sroa.11.2, %60 ], [ %48, %.thread ]
  %.sroa.0.0 = phi double [ 0.000000e+00, %30 ], [ %.sroa.0.2, %77 ], [ %61, %60 ], [ %49, %.thread ]
  %81 = fmul double %8, %.sroa.0.0
  br label %82

82:                                               ; preds = %50, %80
  %.sroa.049.1 = phi double [ %81, %80 ], [ %.sroa.049.0.copyload, %50 ]
  %.sroa.350.1 = phi double [ %.sroa.11.0, %80 ], [ %.sroa.350.0.copyload, %50 ]
  %.fca.0.insert = insertvalue { double, double } poison, double %.sroa.049.1, 0
  %.fca.1.insert = insertvalue { double, double } %.fca.0.insert, double %.sroa.350.1, 1
  ret { double, double } %.fca.1.insert
}